; Function Attrs: nounwind uwtable
define dso_local ptr @PyDict_New() local_unnamed_addr #0 {
  %1 = tail call align 8 ptr @llvm.threadlocal.address.p0(ptr align 8 @_Py_tss_tstate)
  %2 = load ptr, ptr %1, align 8, !tbaa !4
  %3 = getelementptr inbounds nuw i8, ptr %2, i64 16
  %4 = load ptr, ptr %3, align 8, !tbaa !9
  %5 = getelementptr inbounds nuw i8, ptr %4, i64 11432
  %6 = load ptr, ptr %5, align 8, !tbaa !66
  %.not.i.i.i = icmp eq ptr %6, null
  br i1 %.not.i.i.i, label %11, label %_PyFreeList_Pop.exit.i

_PyFreeList_Pop.exit.i:                           ; preds = %0
  %7 = load ptr, ptr %6, align 8, !tbaa !67
  store ptr %7, ptr %5, align 8, !tbaa !66
  %8 = getelementptr inbounds nuw i8, ptr %4, i64 11440
  %9 = load i64, ptr %8, align 8, !tbaa !68
  %10 = add i64 %9, -1
  store i64 %10, ptr %8, align 8, !tbaa !68
  tail call void @_Py_NewReference(ptr noundef nonnull %6) #23
  br label %15

11:                                               ; preds = %0
  %12 = tail call ptr @_PyObject_GC_New(ptr noundef nonnull @PyDict_Type) #23
  %13 = icmp eq ptr %12, null
  br i1 %13, label %14, label %15

14:                                               ; preds = %11
  tail call fastcc void @dictkeys_decref(ptr noundef nonnull @empty_keys_struct)
  br label %new_dict.exit

15:                                               ; preds = %11, %_PyFreeList_Pop.exit.i
  %.0.i = phi ptr [ %12, %11 ], [ %6, %_PyFreeList_Pop.exit.i ]
  %16 = getelementptr inbounds nuw i8, ptr %.0.i, i64 32
  store ptr @empty_keys_struct, ptr %16, align 8, !tbaa !36
  %17 = getelementptr inbounds nuw i8, ptr %.0.i, i64 40
  store ptr null, ptr %17, align 8, !tbaa !40
  %18 = getelementptr inbounds nuw i8, ptr %.0.i, i64 16
  %19 = getelementptr i8, ptr %.0.i, i64 -16
  tail call void @llvm.memset.p0.i64(ptr noundef nonnull align 8 dereferenceable(16) %18, i8 0, i64 16, i1 false)
  %20 = load ptr, ptr %1, align 8, !tbaa !4
  %21 = getelementptr inbounds nuw i8, ptr %20, i64 16
  %22 = load ptr, ptr %21, align 8, !tbaa !9
  %23 = getelementptr inbounds nuw i8, ptr %22, i64 7424
  %24 = getelementptr inbounds nuw i8, ptr %22, i64 7432
  %25 = load i64, ptr %24, align 8, !tbaa !69
  %26 = inttoptr i64 %25 to ptr
  %27 = ptrtoint ptr %19 to i64
  %28 = load i64, ptr %26, align 8, !tbaa !71
  %29 = and i64 %28, 3
  %30 = or i64 %29, %27
  store i64 %30, ptr %26, align 8, !tbaa !71
  %31 = getelementptr i8, ptr %.0.i, i64 -8
  %32 = load i64, ptr %31, align 8, !tbaa !69
  %33 = and i64 %32, 3
  %34 = or i64 %33, %25
  store i64 %34, ptr %31, align 8, !tbaa !69
  %35 = getelementptr inbounds nuw i8, ptr %22, i64 7632
  %36 = load i32, ptr %35, align 8, !tbaa !72
  %37 = xor i32 %36, 1
  %38 = sext i32 %37 to i64
  %39 = ptrtoint ptr %23 to i64
  %40 = or i64 %38, %39
  store i64 %40, ptr %19, align 8, !tbaa !71
  store i64 %27, ptr %24, align 8, !tbaa !69
  br label %new_dict.exit

new_dict.exit:                                    ; preds = %14, %15
  %.015.i = phi ptr [ %.0.i, %15 ], [ null, %14 ]
  ret ptr %.015.i
}